target datalayout = "e-m:e-p270:32:32-p271:32:32-p272:64:64-i64:64-i128:128-f80:128-n8:16:32:64-S128"
target triple = "x86_64-pc-linux-gnu"

%"class.llvm::SmallVectorBase" = type { ptr, i32, i32 }
%"class.llvm::Register" = type { i32 }
%"struct.llvm::LaneBitmask" = type { i64 }
%"class.llvm::SlotIndex" = type { %"class.llvm::PointerIntPair.238" }
%"class.llvm::PointerIntPair.238" = type { %"struct.llvm::detail::PunnedPointer.239" }
%"struct.llvm::detail::PunnedPointer.239" = type { [8 x i8] }
%"class.llvm::VNInfo" = type { i32, [4 x i8], %"class.llvm::SlotIndex" }
%"class.(anonymous namespace)::JoinVals" = type { ptr, %"class.llvm::Register", i32, %"struct.llvm::LaneBitmask", i8, i8, ptr, ptr, ptr, ptr, ptr, %"class.llvm::SmallVector.559", %"class.llvm::SmallVector.564" }
%"class.llvm::SmallVector.559" = type { %"class.llvm::SmallVectorImpl.560", %"struct.llvm::SmallVectorStorage.563" }
%"class.llvm::SmallVectorImpl.560" = type { %"class.llvm::SmallVectorTemplateBase.561" }
%"class.llvm::SmallVectorTemplateBase.561" = type { %"class.llvm::SmallVectorTemplateCommon.562" }
%"class.llvm::SmallVectorTemplateCommon.562" = type { %"class.llvm::SmallVectorBase" }
%"struct.llvm::SmallVectorStorage.563" = type { [32 x i8] }
%"class.llvm::SmallVector.564" = type { %"class.llvm::SmallVectorImpl.565", %"struct.llvm::SmallVectorStorage.568" }
%"class.llvm::SmallVectorImpl.565" = type { %"class.llvm::SmallVectorTemplateBase.566" }
%"class.llvm::SmallVectorTemplateBase.566" = type { %"class.llvm::SmallVectorTemplateCommon.567" }
%"class.llvm::SmallVectorTemplateCommon.567" = type { %"class.llvm::SmallVectorBase" }
%"struct.llvm::SmallVectorStorage.568" = type { [384 x i8] }
%"struct.std::pair.574" = type <{ ptr, %"class.llvm::Register", [4 x i8] }>
%"class.std::tuple.577" = type { %"struct.std::_Tuple_impl.578" }
%"struct.std::_Tuple_impl.578" = type { %"struct.std::_Tuple_impl.579", %"struct.std::_Head_base.581" }
%"struct.std::_Tuple_impl.579" = type { %"struct.std::_Head_base.580" }
%"struct.std::_Head_base.580" = type { ptr }
%"struct.std::_Head_base.581" = type { ptr }

; Function Attrs: mustprogress nounwind uwtable
define linkonce_odr hidden void @_ZNSt10_Head_baseILm1ERN4llvm8RegisterELb0EEC2ES2_(ptr noundef nonnull align 8 dereferenceable(8) %0, ptr noundef nonnull align 4 dereferenceable(4) %1) unnamed_addr #1 comdat align 2 {
  %3 = alloca ptr, align 8
  %4 = alloca ptr, align 8
  store ptr %0, ptr %3, align 8
  store ptr %1, ptr %4, align 8
  %5 = load ptr, ptr %3, align 8
  %6 = getelementptr inbounds nuw %"struct.std::_Head_base.580", ptr %5, i32 0, i32 0
  %7 = load ptr, ptr %4, align 8
  store ptr %7, ptr %6, align 8
  ret void
}

; Function Attrs: mustprogress nounwind uwtable
define linkonce_odr hidden noundef i64 @_ZNK4llvm6detail13PunnedPointerIPNS_14IndexListEntryEE5asIntEv(ptr noundef nonnull align 8 dereferenceable(8) %0) #1 comdat align 2 {
  %2 = alloca ptr, align 8
  %3 = alloca i64, align 8
  store ptr %0, ptr %2, align 8
  %4 = load ptr, ptr %2, align 8
  store i64 0, ptr %3, align 8
  %5 = getelementptr inbounds nuw %"struct.llvm::detail::PunnedPointer.239", ptr %4, i32 0, i32 0
  %6 = getelementptr inbounds [8 x i8], ptr %5, i64 0, i64 0
  call void @llvm.memcpy.p0.p0.i64(ptr align 8 %3, ptr align 8 %6, i64 8, i1 false)
  %7 = load i64, ptr %3, align 8
  ret i64 %7
}

; Function Attrs: mustprogress nounwind uwtable
define linkonce_odr hidden void @_ZNSt10_Head_baseILm0ERPKN4llvm6VNInfoELb0EEC2ES4_(ptr noundef nonnull align 8 dereferenceable(8) %0, ptr noundef nonnull align 8 dereferenceable(8) %1) unnamed_addr #1 comdat align 2 {
  %3 = alloca ptr, align 8
  %4 = alloca ptr, align 8
  store ptr %0, ptr %3, align 8
  store ptr %1, ptr %4, align 8
  %5 = load ptr, ptr %3, align 8
  %6 = getelementptr inbounds nuw %"struct.std::_Head_base.581", ptr %5, i32 0, i32 0
  %7 = load ptr, ptr %4, align 8
  store ptr %7, ptr %6, align 8
  ret void
}

; Function Attrs: mustprogress nounwind uwtable
define linkonce_odr hidden void @_ZNSt11_Tuple_implILm1EJRN4llvm8RegisterEEEC2ES2_(ptr noundef nonnull align 8 dereferenceable(8) %0, ptr noundef nonnull align 4 dereferenceable(4) %1) unnamed_addr #1 comdat align 2 {
  %3 = alloca ptr, align 8
  %4 = alloca ptr, align 8
  store ptr %0, ptr %3, align 8
  store ptr %1, ptr %4, align 8
  %5 = load ptr, ptr %3, align 8
  %6 = load ptr, ptr %4, align 8
  call void @_ZNSt10_Head_baseILm1ERN4llvm8RegisterELb0EEC2ES2_(ptr noundef nonnull align 8 dereferenceable(8) %5, ptr noundef nonnull align 4 dereferenceable(4) %6)
  ret void
}

; Function Attrs: mustprogress nounwind uwtable
define linkonce_odr hidden noundef i64 @_ZNK4llvm6detail13PunnedPointerIPNS_14IndexListEntryEEcvlEv(ptr noundef nonnull align 8 dereferenceable(8) %0) #1 comdat align 2 {
  %2 = alloca ptr, align 8
  store ptr %0, ptr %2, align 8
  %3 = load ptr, ptr %2, align 8
  %4 = call noundef i64 @_ZNK4llvm6detail13PunnedPointerIPNS_14IndexListEntryEE5asIntEv(ptr noundef nonnull align 8 dereferenceable(8) %3)
  ret i64 %4
}

; Function Attrs: mustprogress nounwind uwtable
define linkonce_odr hidden noundef nonnull align 4 dereferenceable(4) ptr @_ZNSt10_Head_baseILm1ERN4llvm8RegisterELb0EE7_M_headERS3_(ptr noundef nonnull align 8 dereferenceable(8) %0) #1 comdat align 2 {
  %2 = alloca ptr, align 8
  store ptr %0, ptr %2, align 8
  %3 = load ptr, ptr %2, align 8
  %4 = getelementptr inbounds nuw %"struct.std::_Head_base.580", ptr %3, i32 0, i32 0
  %5 = load ptr, ptr %4, align 8
  ret ptr %5
}

; Function Attrs: mustprogress nounwind uwtable
define linkonce_odr hidden noundef nonnull align 8 dereferenceable(8) ptr @_ZNSt10_Head_baseILm0ERPKN4llvm6VNInfoELb0EE7_M_headERS5_(ptr noundef nonnull align 8 dereferenceable(8) %0) #1 comdat align 2 {
  %2 = alloca ptr, align 8
  store ptr %0, ptr %2, align 8
  %3 = load ptr, ptr %2, align 8
  %4 = getelementptr inbounds nuw %"struct.std::_Head_base.581", ptr %3, i32 0, i32 0
  %5 = load ptr, ptr %4, align 8
  ret ptr %5
}

; Function Attrs: mustprogress nounwind uwtable
define linkonce_odr hidden void @_ZNSt11_Tuple_implILm0EJRPKN4llvm6VNInfoERNS0_8RegisterEEEC2ES4_S6_(ptr noundef nonnull align 8 dereferenceable(16) %0, ptr noundef nonnull align 8 dereferenceable(8) %1, ptr noundef nonnull align 4 dereferenceable(4) %2) unnamed_addr #1 comdat align 2 {
  %4 = alloca ptr, align 8
  %5 = alloca ptr, align 8
  %6 = alloca ptr, align 8
  store ptr %0, ptr %4, align 8
  store ptr %1, ptr %5, align 8
  store ptr %2, ptr %6, align 8
  %7 = load ptr, ptr %4, align 8
  %8 = load ptr, ptr %6, align 8
  call void @_ZNSt11_Tuple_implILm1EJRN4llvm8RegisterEEEC2ES2_(ptr noundef nonnull align 8 dereferenceable(8) %7, ptr noundef nonnull align 4 dereferenceable(4) %8)
  %9 = getelementptr inbounds i8, ptr %7, i64 8
  %10 = load ptr, ptr %5, align 8
  call void @_ZNSt10_Head_baseILm0ERPKN4llvm6VNInfoELb0EEC2ES4_(ptr noundef nonnull align 8 dereferenceable(8) %9, ptr noundef nonnull align 8 dereferenceable(8) %10)
  ret void
}

; Function Attrs: mustprogress nounwind uwtable
define linkonce_odr hidden noundef zeroext i1 @_ZNK4llvm14PointerIntPairIPNS_14IndexListEntryELj2EjNS_21PointerLikeTypeTraitsIS2_EENS_18PointerIntPairInfoIS2_Lj2ES4_EEEeqERKS7_(ptr noundef nonnull align 8 dereferenceable(8) %0, ptr noundef nonnull align 8 dereferenceable(8) %1) #1 comdat align 2 {
  %3 = alloca ptr, align 8
  %4 = alloca ptr, align 8
  store ptr %0, ptr %3, align 8
  store ptr %1, ptr %4, align 8
  %5 = load ptr, ptr %3, align 8
  %6 = getelementptr inbounds nuw %"class.llvm::PointerIntPair.238", ptr %5, i32 0, i32 0
  %7 = call noundef i64 @_ZNK4llvm6detail13PunnedPointerIPNS_14IndexListEntryEEcvlEv(ptr noundef nonnull align 8 dereferenceable(8) %6)
  %8 = load ptr, ptr %4, align 8
  %9 = getelementptr inbounds nuw %"class.llvm::PointerIntPair.238", ptr %8, i32 0, i32 0
  %10 = call noundef i64 @_ZNK4llvm6detail13PunnedPointerIPNS_14IndexListEntryEEcvlEv(ptr noundef nonnull align 8 dereferenceable(8) %9)
  %11 = icmp eq i64 %7, %10
  ret i1 %11
}

; Function Attrs: mustprogress nounwind uwtable
define linkonce_odr hidden noundef nonnull align 4 dereferenceable(4) ptr @_ZNSt11_Tuple_implILm1EJRN4llvm8RegisterEEE7_M_headERS3_(ptr noundef nonnull align 8 dereferenceable(8) %0) #1 comdat align 2 {
  %2 = alloca ptr, align 8
  store ptr %0, ptr %2, align 8
  %3 = load ptr, ptr %2, align 8
  %4 = call noundef nonnull align 4 dereferenceable(4) ptr @_ZNSt10_Head_baseILm1ERN4llvm8RegisterELb0EE7_M_headERS3_(ptr noundef nonnull align 8 dereferenceable(8) %3) #2
  ret ptr %4
}

; Function Attrs: mustprogress nounwind uwtable
define linkonce_odr hidden noundef nonnull align 8 dereferenceable(8) ptr @_ZNSt11_Tuple_implILm0EJRPKN4llvm6VNInfoERNS0_8RegisterEEE7_M_tailERS7_(ptr noundef nonnull align 8 dereferenceable(16) %0) #1 comdat align 2 {
  %2 = alloca ptr, align 8
  store ptr %0, ptr %2, align 8
  %3 = load ptr, ptr %2, align 8
  ret ptr %3
}

; Function Attrs: mustprogress nounwind uwtable
define linkonce_odr hidden noundef nonnull align 8 dereferenceable(8) ptr @_ZNSt11_Tuple_implILm0EJRPKN4llvm6VNInfoERNS0_8RegisterEEE7_M_headERS7_(ptr noundef nonnull align 8 dereferenceable(16) %0) #1 comdat align 2 {
  %2 = alloca ptr, align 8
  store ptr %0, ptr %2, align 8
  %3 = load ptr, ptr %2, align 8
  %4 = getelementptr inbounds i8, ptr %3, i64 8
  %5 = call noundef nonnull align 8 dereferenceable(8) ptr @_ZNSt10_Head_baseILm0ERPKN4llvm6VNInfoELb0EE7_M_headERS5_(ptr noundef nonnull align 8 dereferenceable(8) %4) #2
  ret ptr %5
}

; Function Attrs: mustprogress nounwind uwtable
define linkonce_odr hidden void @_ZNSt5tupleIJRPKN4llvm6VNInfoERNS0_8RegisterEEEC2ILb1ETnNSt9enable_ifIXclsr4_TCCIXT_EEE29__is_implicitly_constructibleIS4_S6_EEEbE4typeELb1EEES4_S6_(ptr noundef nonnull align 8 dereferenceable(16) %0, ptr noundef nonnull align 8 dereferenceable(8) %1, ptr noundef nonnull align 4 dereferenceable(4) %2) unnamed_addr #1 comdat align 2 {
  %4 = alloca ptr, align 8
  %5 = alloca ptr, align 8
  %6 = alloca ptr, align 8
  store ptr %0, ptr %4, align 8
  store ptr %1, ptr %5, align 8
  store ptr %2, ptr %6, align 8
  %7 = load ptr, ptr %4, align 8
  %8 = load ptr, ptr %5, align 8
  %9 = load ptr, ptr %6, align 8
  call void @_ZNSt11_Tuple_implILm0EJRPKN4llvm6VNInfoERNS0_8RegisterEEEC2ES4_S6_(ptr noundef nonnull align 8 dereferenceable(16) %7, ptr noundef nonnull align 8 dereferenceable(8) %8, ptr noundef nonnull align 4 dereferenceable(4) %9)
  ret void
}

; Function Attrs: mustprogress nounwind uwtable
define linkonce_odr hidden noundef zeroext i1 @_ZNK4llvm9SlotIndexeqES0_(ptr noundef nonnull align 8 dereferenceable(8) %0, i64 %1) #1 comdat align 2 {
  %3 = alloca %"class.llvm::SlotIndex", align 8
  %4 = alloca ptr, align 8
  %5 = getelementptr inbounds nuw %"class.llvm::SlotIndex", ptr %3, i32 0, i32 0
  %6 = getelementptr inbounds nuw %"class.llvm::PointerIntPair.238", ptr %5, i32 0, i32 0
  %7 = getelementptr inbounds nuw %"struct.llvm::detail::PunnedPointer.239", ptr %6, i32 0, i32 0
  store i64 %1, ptr %7, align 8
  store ptr %0, ptr %4, align 8
  %8 = load ptr, ptr %4, align 8
  %9 = getelementptr inbounds nuw %"class.llvm::SlotIndex", ptr %8, i32 0, i32 0
  %10 = getelementptr inbounds nuw %"class.llvm::SlotIndex", ptr %3, i32 0, i32 0
  %11 = call noundef zeroext i1 @_ZNK4llvm14PointerIntPairIPNS_14IndexListEntryELj2EjNS_21PointerLikeTypeTraitsIS2_EENS_18PointerIntPairInfoIS2_Lj2ES4_EEEeqERKS7_(ptr noundef nonnull align 8 dereferenceable(8) %9, ptr noundef nonnull align 8 dereferenceable(8) %10)
  ret i1 %11
}

; Function Attrs: mustprogress nounwind uwtable
define linkonce_odr hidden noundef zeroext i1 @_ZNK4llvm8RegistereqERKS0_(ptr noundef nonnull align 4 dereferenceable(4) %0, ptr noundef nonnull align 4 dereferenceable(4) %1) #1 comdat align 2 {
  %3 = alloca ptr, align 8
  %4 = alloca ptr, align 8
  store ptr %0, ptr %3, align 8
  store ptr %1, ptr %4, align 8
  %5 = load ptr, ptr %3, align 8
  %6 = getelementptr inbounds nuw %"class.llvm::Register", ptr %5, i32 0, i32 0
  %7 = load i32, ptr %6, align 4
  %8 = load ptr, ptr %4, align 8
  %9 = getelementptr inbounds nuw %"class.llvm::Register", ptr %8, i32 0, i32 0
  %10 = load i32, ptr %9, align 4
  %11 = icmp eq i32 %7, %10
  ret i1 %11
}

; Function Attrs: mustprogress nounwind uwtable
define linkonce_odr hidden noundef nonnull align 8 dereferenceable(16) ptr @_ZNSt5tupleIJRPKN4llvm6VNInfoERNS0_8RegisterEEEaSIS3_S5_EENSt9enable_ifIXcl12__assignableIT_T0_EEERS7_E4typeEOSt4pairISA_SB_E(ptr noundef nonnull align 8 dereferenceable(16) %0, ptr noundef nonnull align 8 dereferenceable(12) %1) #1 comdat align 2 {
  %3 = alloca ptr, align 8
  %4 = alloca ptr, align 8
  store ptr %0, ptr %3, align 8
  store ptr %1, ptr %4, align 8
  %5 = load ptr, ptr %3, align 8
  %6 = load ptr, ptr %4, align 8
  %7 = getelementptr inbounds nuw %"struct.std::pair.574", ptr %6, i32 0, i32 0
  %8 = load ptr, ptr %7, align 8
  %9 = call noundef nonnull align 8 dereferenceable(8) ptr @_ZNSt11_Tuple_implILm0EJRPKN4llvm6VNInfoERNS0_8RegisterEEE7_M_headERS7_(ptr noundef nonnull align 8 dereferenceable(16) %5) #2
  store ptr %8, ptr %9, align 8
  %10 = load ptr, ptr %4, align 8
  %11 = getelementptr inbounds nuw %"struct.std::pair.574", ptr %10, i32 0, i32 1
  %12 = call noundef nonnull align 8 dereferenceable(8) ptr @_ZNSt11_Tuple_implILm0EJRPKN4llvm6VNInfoERNS0_8RegisterEEE7_M_tailERS7_(ptr noundef nonnull align 8 dereferenceable(16) %5) #2
  %13 = call noundef nonnull align 4 dereferenceable(4) ptr @_ZNSt11_Tuple_implILm1EJRN4llvm8RegisterEEE7_M_headERS3_(ptr noundef nonnull align 8 dereferenceable(8) %5) #2
  call void @llvm.memcpy.p0.p0.i64(ptr align 4 %13, ptr align 4 %11, i64 4, i1 false)
  ret ptr %5
}

; Function Attrs: mustprogress nounwind uwtable
define linkonce_odr void @_ZSt3tieIJPKN4llvm6VNInfoENS0_8RegisterEEESt5tupleIJDpRT_EES8_(ptr dead_on_unwind noalias writable sret(%"class.std::tuple.577") align 8 %0, ptr noundef nonnull align 8 dereferenceable(8) %1, ptr noundef nonnull align 4 dereferenceable(4) %2) #1 comdat {
  %4 = alloca ptr, align 8
  %5 = alloca ptr, align 8
  %6 = alloca ptr, align 8
  store ptr %0, ptr %4, align 8
  store ptr %1, ptr %5, align 8
  store ptr %2, ptr %6, align 8
  %7 = load ptr, ptr %5, align 8
  %8 = load ptr, ptr %6, align 8
  call void @_ZNSt5tupleIJRPKN4llvm6VNInfoERNS0_8RegisterEEEC2ILb1ETnNSt9enable_ifIXclsr4_TCCIXT_EEE29__is_implicitly_constructibleIS4_S6_EEEbE4typeELb1EEES4_S6_(ptr noundef nonnull align 8 dereferenceable(16) %0, ptr noundef nonnull align 8 dereferenceable(8) %7, ptr noundef nonnull align 4 dereferenceable(4) %8) #2
  ret void
}

; Function Attrs: mustprogress nounwind uwtable
define linkonce_odr hidden void @_ZN4llvm8RegisterC2Ej(ptr noundef nonnull align 4 dereferenceable(4) %0, i32 noundef %1) unnamed_addr #1 comdat align 2 {
  %3 = alloca ptr, align 8
  %4 = alloca i32, align 4
  store ptr %0, ptr %3, align 8
  store i32 %1, ptr %4, align 4
  %5 = load ptr, ptr %3, align 8
  %6 = getelementptr inbounds nuw %"class.llvm::Register", ptr %5, i32 0, i32 0
  %7 = load i32, ptr %4, align 4
  store i32 %7, ptr %6, align 4
  ret void
}

; Function Attrs: mustprogress nounwind uwtable
define internal noundef zeroext i1 @_ZNK12_GLOBAL__N_18JoinVals15valuesIdenticalEPN4llvm6VNInfoES3_RKS0_(ptr noundef nonnull align 8 dereferenceable(520) %0, ptr noundef %1, ptr noundef %2, ptr noundef nonnull align 8 dereferenceable(520) %3) #1 align 2 {
  %5 = alloca i1, align 1
  %6 = alloca ptr, align 8
  %7 = alloca ptr, align 8
  %8 = alloca ptr, align 8
  %9 = alloca ptr, align 8
  %10 = alloca ptr, align 8
  %11 = alloca %"class.llvm::Register", align 4
  %12 = alloca %"struct.std::pair.574", align 8
  %13 = alloca { ptr, i32 }, align 8
  %14 = alloca %"class.std::tuple.577", align 8
  %15 = alloca ptr, align 8
  %16 = alloca %"class.llvm::Register", align 4
  %17 = alloca %"struct.std::pair.574", align 8
  %18 = alloca { ptr, i32 }, align 8
  %19 = alloca %"class.std::tuple.577", align 8
  %20 = alloca %"class.llvm::SlotIndex", align 8
  store ptr %0, ptr %6, align 8
  store ptr %1, ptr %7, align 8
  store ptr %2, ptr %8, align 8
  store ptr %3, ptr %9, align 8
  %21 = load ptr, ptr %6, align 8
  call void @_ZN4llvm8RegisterC2Ej(ptr noundef nonnull align 4 dereferenceable(4) %11, i32 noundef 0)
  %22 = load ptr, ptr %7, align 8
  %23 = call { ptr, i32 } @_ZNK12_GLOBAL__N_18JoinVals15followCopyChainEPKN4llvm6VNInfoE(ptr noundef nonnull align 8 dereferenceable(520) %21, ptr noundef %22)
  store { ptr, i32 } %23, ptr %13, align 8
  call void @llvm.memcpy.p0.p0.i64(ptr align 8 %12, ptr align 8 %13, i64 12, i1 false)
  call void @_ZSt3tieIJPKN4llvm6VNInfoENS0_8RegisterEEESt5tupleIJDpRT_EES8_(ptr dead_on_unwind writable sret(%"class.std::tuple.577") align 8 %14, ptr noundef nonnull align 8 dereferenceable(8) %10, ptr noundef nonnull align 4 dereferenceable(4) %11) #2
  %24 = call noundef nonnull align 8 dereferenceable(16) ptr @_ZNSt5tupleIJRPKN4llvm6VNInfoERNS0_8RegisterEEEaSIS3_S5_EENSt9enable_ifIXcl12__assignableIT_T0_EEERS7_E4typeEOSt4pairISA_SB_E(ptr noundef nonnull align 8 dereferenceable(16) %14, ptr noundef nonnull align 8 dereferenceable(12) %12) #2
  %25 = load ptr, ptr %10, align 8
  %26 = load ptr, ptr %8, align 8
  %27 = icmp eq ptr %25, %26
  br i1 %27, label %28, label %33

28:                                               ; preds = %4
  %29 = load ptr, ptr %9, align 8
  %30 = getelementptr inbounds nuw %"class.(anonymous namespace)::JoinVals", ptr %29, i32 0, i32 1
  %31 = call noundef zeroext i1 @_ZNK4llvm8RegistereqERKS0_(ptr noundef nonnull align 4 dereferenceable(4) %11, ptr noundef nonnull align 4 dereferenceable(4) %30)
  br i1 %31, label %32, label %33

32:                                               ; preds = %28
  store i1 true, ptr %5, align 1
  br label %65

33:                                               ; preds = %28, %4
  call void @_ZN4llvm8RegisterC2Ej(ptr noundef nonnull align 4 dereferenceable(4) %16, i32 noundef 0)
  %34 = load ptr, ptr %9, align 8
  %35 = load ptr, ptr %8, align 8
  %36 = call { ptr, i32 } @_ZNK12_GLOBAL__N_18JoinVals15followCopyChainEPKN4llvm6VNInfoE(ptr noundef nonnull align 8 dereferenceable(520) %34, ptr noundef %35)
  store { ptr, i32 } %36, ptr %18, align 8
  call void @llvm.memcpy.p0.p0.i64(ptr align 8 %17, ptr align 8 %18, i64 12, i1 false)
  call void @_ZSt3tieIJPKN4llvm6VNInfoENS0_8RegisterEEESt5tupleIJDpRT_EES8_(ptr dead_on_unwind writable sret(%"class.std::tuple.577") align 8 %19, ptr noundef nonnull align 8 dereferenceable(8) %15, ptr noundef nonnull align 4 dereferenceable(4) %16) #2
  %37 = call noundef nonnull align 8 dereferenceable(16) ptr @_ZNSt5tupleIJRPKN4llvm6VNInfoERNS0_8RegisterEEEaSIS3_S5_EENSt9enable_ifIXcl12__assignableIT_T0_EEERS7_E4typeEOSt4pairISA_SB_E(ptr noundef nonnull align 8 dereferenceable(16) %19, ptr noundef nonnull align 8 dereferenceable(12) %17) #2
  %38 = load ptr, ptr %10, align 8
  %39 = icmp eq ptr %38, null
  br i1 %39, label %43, label %40

40:                                               ; preds = %33
  %41 = load ptr, ptr %15, align 8
  %42 = icmp eq ptr %41, null
  br i1 %42, label %43, label %51

43:                                               ; preds = %40, %33
  %44 = load ptr, ptr %10, align 8
  %45 = load ptr, ptr %15, align 8
  %46 = icmp eq ptr %44, %45
  br i1 %46, label %47, label %49

47:                                               ; preds = %43
  %48 = call noundef zeroext i1 @_ZNK4llvm8RegistereqERKS0_(ptr noundef nonnull align 4 dereferenceable(4) %11, ptr noundef nonnull align 4 dereferenceable(4) %16)
  br label %49

49:                                               ; preds = %47, %43
  %50 = phi i1 [ false, %43 ], [ %48, %47 ]
  store i1 %50, ptr %5, align 1
  br label %65

51:                                               ; preds = %40
  %52 = load ptr, ptr %10, align 8
  %53 = getelementptr inbounds nuw %"class.llvm::VNInfo", ptr %52, i32 0, i32 2
  %54 = load ptr, ptr %15, align 8
  %55 = getelementptr inbounds nuw %"class.llvm::VNInfo", ptr %54, i32 0, i32 2
  call void @llvm.memcpy.p0.p0.i64(ptr align 8 %20, ptr align 8 %55, i64 8, i1 false)
  %56 = getelementptr inbounds nuw %"class.llvm::SlotIndex", ptr %20, i32 0, i32 0
  %57 = getelementptr inbounds nuw %"class.llvm::PointerIntPair.238", ptr %56, i32 0, i32 0
  %58 = getelementptr inbounds nuw %"struct.llvm::detail::PunnedPointer.239", ptr %57, i32 0, i32 0
  %59 = load i64, ptr %58, align 8
  %60 = call noundef zeroext i1 @_ZNK4llvm9SlotIndexeqES0_(ptr noundef nonnull align 8 dereferenceable(8) %53, i64 %59)
  br i1 %60, label %61, label %63

61:                                               ; preds = %51
  %62 = call noundef zeroext i1 @_ZNK4llvm8RegistereqERKS0_(ptr noundef nonnull align 4 dereferenceable(4) %11, ptr noundef nonnull align 4 dereferenceable(4) %16)
  br label %63

63:                                               ; preds = %61, %51
  %64 = phi i1 [ false, %51 ], [ %62, %61 ]
  store i1 %64, ptr %5, align 1
  br label %65

65:                                               ; preds = %63, %49, %32
  %66 = load i1, ptr %5, align 1
  ret i1 %66
}