; Function Attrs: mustprogress nounwind uwtable
define internal fastcc noundef zeroext i1 @_ZNK12_GLOBAL__N_18JoinVals15valuesIdenticalEPN4llvm6VNInfoES3_RKS0_(ptr nocapture noundef nonnull readonly align 8 dereferenceable(520) %0, ptr noundef %1, ptr noundef %2, ptr nocapture noundef nonnull readonly align 8 dereferenceable(520) %3) unnamed_addr #0 align 2 {
  %5 = tail call fastcc { ptr, i32 } @_ZNK12_GLOBAL__N_18JoinVals15followCopyChainEPKN4llvm6VNInfoE(ptr noundef nonnull align 8 dereferenceable(520) %0, ptr noundef %1)
  %.fca.0.extract3 = extractvalue { ptr, i32 } %5, 0
  %.fca.1.extract4 = extractvalue { ptr, i32 } %5, 1
  %6 = icmp eq ptr %.fca.0.extract3, %2
  %7 = getelementptr inbounds nuw i8, ptr %3, i64 8
  %8 = load i32, ptr %7, align 8
  %9 = icmp eq i32 %.fca.1.extract4, %8
  %or.cond29 = select i1 %6, i1 %9, i1 false
  br i1 %or.cond29, label %22, label %10

10:                                               ; preds = %4
  %11 = tail call fastcc { ptr, i32 } @_ZNK12_GLOBAL__N_18JoinVals15followCopyChainEPKN4llvm6VNInfoE(ptr noundef nonnull align 8 dereferenceable(520) %3, ptr noundef %2)
  %.fca.0.extract = extractvalue { ptr, i32 } %11, 0
  %.fca.1.extract = extractvalue { ptr, i32 } %11, 1
  %12 = icmp eq ptr %.fca.0.extract3, null
  %13 = icmp eq ptr %.fca.0.extract, null
  %or.cond = select i1 %12, i1 true, i1 %13
  br i1 %or.cond, label %14, label %17

14:                                               ; preds = %10
  %15 = icmp eq ptr %.fca.0.extract3, %.fca.0.extract
  %16 = icmp eq i32 %.fca.1.extract4, %.fca.1.extract
  %spec.select = select i1 %15, i1 %16, i1 false
  br label %22

17:                                               ; preds = %10
  %18 = getelementptr inbounds nuw i8, ptr %.fca.0.extract3, i64 8
  %19 = getelementptr inbounds nuw i8, ptr %.fca.0.extract, i64 8
  %.sroa.0.0.copyload = load i64, ptr %19, align 8
  %.0.copyload.i.i.i.i = load i64, ptr %18, align 8
  %20 = icmp eq i64 %.0.copyload.i.i.i.i, %.sroa.0.0.copyload
  %21 = icmp eq i32 %.fca.1.extract4, %.fca.1.extract
  %spec.select30 = select i1 %20, i1 %21, i1 false
  br label %22

22:                                               ; preds = %17, %14, %4
  %.0 = phi i1 [ true, %4 ], [ %spec.select, %14 ], [ %spec.select30, %17 ]
  ret i1 %.0
}